; Function Attrs: nounwind uwtable
define range(i32 0, 2) i32 @HMAC_CTX_copy(ptr noundef captures(none) initializes((0, 8)) %0, ptr noundef readonly captures(none) %1) local_unnamed_addr #0 {
  %3 = getelementptr inbounds nuw i8, ptr %0, i64 16
  %4 = load ptr, ptr %3, align 8, !tbaa !17
  %5 = icmp eq ptr %4, null
  br i1 %5, label %6, label %.thread.i

6:                                                ; preds = %2
  %7 = tail call ptr @EVP_MD_CTX_new() #7
  store ptr %7, ptr %3, align 8, !tbaa !17
  %8 = icmp eq ptr %7, null
  br i1 %8, label %hmac_ctx_alloc_mds.exit.thread, label %.thread.i

.thread.i:                                        ; preds = %6, %2
  %9 = getelementptr inbounds nuw i8, ptr %0, i64 24
  %10 = load ptr, ptr %9, align 8, !tbaa !19
  %11 = icmp eq ptr %10, null
  br i1 %11, label %12, label %.thread9.i

12:                                               ; preds = %.thread.i
  %13 = tail call ptr @EVP_MD_CTX_new() #7
  store ptr %13, ptr %9, align 8, !tbaa !19
  %14 = icmp eq ptr %13, null
  br i1 %14, label %hmac_ctx_alloc_mds.exit.thread, label %.thread9.i

.thread9.i:                                       ; preds = %12, %.thread.i
  %15 = getelementptr inbounds nuw i8, ptr %0, i64 8
  %16 = load ptr, ptr %15, align 8, !tbaa !11
  %17 = icmp eq ptr %16, null
  br i1 %17, label %hmac_ctx_alloc_mds.exit, label %hmac_ctx_alloc_mds.exit.thread15

hmac_ctx_alloc_mds.exit:                          ; preds = %.thread9.i
  %18 = tail call ptr @EVP_MD_CTX_new() #7
  store ptr %18, ptr %15, align 8, !tbaa !11
  %.not18 = icmp eq ptr %18, null
  br i1 %.not18, label %hmac_ctx_alloc_mds.exit.thread, label %hmac_ctx_alloc_mds.exit.thread15

hmac_ctx_alloc_mds.exit.thread15:                 ; preds = %.thread9.i, %hmac_ctx_alloc_mds.exit
  %19 = load ptr, ptr %3, align 8, !tbaa !17
  %20 = getelementptr inbounds nuw i8, ptr %1, i64 16
  %21 = load ptr, ptr %20, align 8, !tbaa !17
  %22 = tail call i32 @EVP_MD_CTX_copy_ex(ptr noundef %19, ptr noundef %21) #7
  %.not10 = icmp eq i32 %22, 0
  br i1 %.not10, label %hmac_ctx_alloc_mds.exit.thread, label %23

23:                                               ; preds = %hmac_ctx_alloc_mds.exit.thread15
  %24 = load ptr, ptr %9, align 8, !tbaa !19
  %25 = getelementptr inbounds nuw i8, ptr %1, i64 24
  %26 = load ptr, ptr %25, align 8, !tbaa !19
  %27 = tail call i32 @EVP_MD_CTX_copy_ex(ptr noundef %24, ptr noundef %26) #7
  %.not11 = icmp eq i32 %27, 0
  br i1 %.not11, label %hmac_ctx_alloc_mds.exit.thread, label %28

28:                                               ; preds = %23
  %29 = load ptr, ptr %15, align 8, !tbaa !11
  %30 = getelementptr inbounds nuw i8, ptr %1, i64 8
  %31 = load ptr, ptr %30, align 8, !tbaa !11
  %32 = tail call i32 @EVP_MD_CTX_copy_ex(ptr noundef %29, ptr noundef %31) #7
  %.not12 = icmp eq i32 %32, 0
  br i1 %.not12, label %hmac_ctx_alloc_mds.exit.thread, label %33

33:                                               ; preds = %28
  %34 = load ptr, ptr %1, align 8, !tbaa !3
  br label %43

hmac_ctx_alloc_mds.exit.thread:                   ; preds = %12, %6, %28, %23, %hmac_ctx_alloc_mds.exit.thread15, %hmac_ctx_alloc_mds.exit
  %35 = load ptr, ptr %3, align 8, !tbaa !17
  %36 = tail call i32 @EVP_MD_CTX_reset(ptr noundef %35) #7
  %37 = getelementptr inbounds nuw i8, ptr %0, i64 24
  %38 = load ptr, ptr %37, align 8, !tbaa !19
  %39 = tail call i32 @EVP_MD_CTX_reset(ptr noundef %38) #7
  %40 = getelementptr inbounds nuw i8, ptr %0, i64 8
  %41 = load ptr, ptr %40, align 8, !tbaa !11
  %42 = tail call i32 @EVP_MD_CTX_reset(ptr noundef %41) #7
  br label %43

43:                                               ; preds = %hmac_ctx_alloc_mds.exit.thread, %33
  %storemerge = phi ptr [ %34, %33 ], [ null, %hmac_ctx_alloc_mds.exit.thread ]
  %.0 = phi i32 [ 1, %33 ], [ 0, %hmac_ctx_alloc_mds.exit.thread ]
  store ptr %storemerge, ptr %0, align 8, !tbaa !3
  ret i32 %.0
}